target datalayout = "e-m:e-p270:32:32-p271:32:32-p272:64:64-i64:64-i128:128-f80:128-n8:16:32:64-S128"
target triple = "x86_64-pc-linux-gnu"

%struct.gmx_wallcycle = type <{ %"struct.gmx::EnumerationArray", i64, %"struct.gmx::EnumerationArray.2", ptr, %"class.std::vector", i32, i32, i64, i8, i8, %"struct.std::array", i8, i32, i8, [7 x i8] }>
%"struct.gmx::EnumerationArray" = type { [52 x %struct.wallcc_t] }
%struct.wallcc_t = type { i32, i64, i64 }
%"struct.gmx::EnumerationArray.2" = type { [41 x %struct.wallcc_t] }
%"class.std::vector" = type { %"struct.std::_Vector_base" }
%"struct.std::_Vector_base" = type { %"struct.std::_Vector_base<wallcc_t, std::allocator<wallcc_t>>::_Vector_impl" }
%"struct.std::_Vector_base<wallcc_t, std::allocator<wallcc_t>>::_Vector_impl" = type { %"struct.std::_Vector_base<wallcc_t, std::allocator<wallcc_t>>::_Vector_impl_data" }
%"struct.std::_Vector_base<wallcc_t, std::allocator<wallcc_t>>::_Vector_impl_data" = type { ptr, ptr, ptr }
%"struct.std::array" = type { %"struct.std::__array_traits<WallCycleCounter, 0>::_Type" }
%"struct.std::__array_traits<WallCycleCounter, 0>::_Type" = type { i8 }
%struct.t_commrec = type <{ i32, i32, i32, i32, ptr, ptr, i32, [4 x i8], ptr, i32, i32, %struct.gmx_nodecomm_t, %"class.std::unique_ptr.3", ptr, i32, [4 x i8] }>
%struct.gmx_nodecomm_t = type { i8, ptr, i32, ptr }
%"class.std::unique_ptr.3" = type { %"struct.std::__uniq_ptr_data.4" }
%"struct.std::__uniq_ptr_data.4" = type { %"class.std::__uniq_ptr_impl.5" }
%"class.std::__uniq_ptr_impl.5" = type { %"class.std::tuple.6" }
%"class.std::tuple.6" = type { %"struct.std::_Tuple_impl.7" }
%"struct.std::_Tuple_impl.7" = type { %"struct.std::_Head_base.10" }
%"struct.std::_Head_base.10" = type { ptr }

; Function Attrs: mustprogress uwtable
define void @_Z16wallcycleBarrierP13gmx_wallcycle(ptr noundef %0) #0 {
  %2 = alloca ptr, align 8
  store ptr %0, ptr %2, align 8
  %3 = load ptr, ptr %2, align 8
  %4 = getelementptr inbounds %struct.gmx_wallcycle, ptr %3, i32 0, i32 9
  %5 = load i8, ptr %4, align 1
  %6 = trunc i8 %5 to i1
  br i1 %6, label %7, label %14

7:                                                ; preds = %1
  %8 = load ptr, ptr %2, align 8
  %9 = getelementptr inbounds %struct.gmx_wallcycle, ptr %8, i32 0, i32 3
  %10 = load ptr, ptr %9, align 8
  %11 = getelementptr inbounds %struct.t_commrec, ptr %10, i32 0, i32 5
  %12 = load ptr, ptr %11, align 8
  %13 = call noundef i32 @_Z12tMPI_BarrierP10tmpi_comm_(ptr noundef %12)
  br label %14

14:                                               ; preds = %7, %1
  ret void
}