; Function Attrs: mustprogress uwtable
define void @_Z16wallcycleBarrierP13gmx_wallcycle(ptr nocapture noundef readonly %0) local_unnamed_addr #1 {
  %2 = getelementptr inbounds i8, ptr %0, i64 2289
  %3 = load i8, ptr %2, align 1
  %4 = trunc i8 %3 to i1
  br i1 %4, label %5, label %11

5:                                                ; preds = %1
  %6 = getelementptr inbounds i8, ptr %0, i64 2240
  %7 = load ptr, ptr %6, align 8
  %8 = getelementptr inbounds i8, ptr %7, i64 24
  %9 = load ptr, ptr %8, align 8
  %10 = tail call noundef i32 @_Z12tMPI_BarrierP10tmpi_comm_(ptr noundef %9)
  br label %11

11:                                               ; preds = %5, %1
  ret void
}